(dp1
S'<d>:root'
p2
I0
sS'<d>:nsubjpass'
p3
I8
sS'<d>:<unk>'
p4
I1
sS'<d>:amod'
p5
I14
sS'<d>:compound'
p6
I10
sS'<d>:xcomp'
p7
I11
sS'<d>:dobj'
p8
I9
sS'<d>:aux'
p9
I3
sS'<d>:auxpass'
p10
I2
sS'<d>:punct'
p11
I12
sS'<d>:<root>'
p12
I4
sS'<d>:nmod'
p13
I13
sS'<d>:mark'
p14
I5
sS'<d>:<null>'
p15
I15
sS'<d>:nummod'
p16
I16
sS'<d>:advmod'
p17
I17
sS'<d>:det'
p18
I18
sS'<d>:nmod:tmod'
p19
I19
sS'<d>:nsubj'
p20
I20
sS'<d>:case'
p21
I6
sS'<d>:neg'
p22
I7
s.