(dp1
S'<p>:VBZ'
p2
I0
sS'<p>:<root>'
p3
I1
sS'<p>:RB'
p4
I2
sS'<p>:``'
p5
I5
sS'<p>:CC'
p6
I6
sS'<p>:VBN'
p7
I8
sS'<p>:CD'
p8
I10
sS'<p>:MD'
p9
I11
sS'<p>:VBD'
p10
I13
sS'<p>:NNS'
p11
I14
sS'<p>:NNP'
p12
I16
sS'<p>:IN'
p13
I12
sS'<p>:<null>'
p14
I3
sS"<p>:''"
p15
I4
sS'<p>:DT'
p16
I7
sS'<p>:RBR'
p17
I21
sS'<p>:NN'
p18
I9
sS'<p>:JJ'
p19
I15
sS'<p>:.'
p20
I17
sS'<p>:VB'
p21
I18
sS'<p>:<unk>'
p22
I19
sS'<p>:TO'
p23
I20
s.