(dp1
S'and'
p2
I0
sS'set'
p3
I1
sS'often'
p4
I2
sS'proposed'
p5
I3
sS'less'
p6
I4
sS'in'
p7
I5
sS'<root>'
p8
I6
sS"''"
p9
I8
sS'date'
p10
I9
sS'year'
p11
I10
sS'apparently'
p12
I11
sS'haag'
p13
I12
sS'really'
p14
I13
sS'plays'
p15
I14
sS'1,214'
p16
I15
sS'would'
p17
I16
sS'to'
p18
I21
sS'been'
p19
I19
sS'.'
I20
sS'also'
p20
I17
sS'ideal'
p21
I22
sS'luxury'
p22
I23
sS'<null>'
p23
I27
sS'has'
p24
I25
sS'u.s.'
p25
I30
sS'record'
p26
I42
sS'``'
p27
I28
sS'cars'
p28
I24
sS'sold'
p29
I26
sS'elianti'
p30
I31
sS'not'
p31
I18
sS'believe'
p32
I33
sS'a'
I34
sS'last'
p33
I35
sS'auto'
p34
I29
sS'this'
p35
I36
sS'of'
p36
I37
sS'later'
p37
I38
sS'commission'
p38
I39
sS'options'
p39
I49
sS"n't"
p40
I41
sS'ms.'
p41
I7
sS'exercises'
p42
I32
sS'allow'
p43
I43
sS'report'
p44
I44
sS'did'
p45
I45
sS'the'
p46
I46
sS'executives'
p47
I50
sS'changes'
p48
I48
sS'maker'
p49
I40
sS'<unk>'
p50
I47
s.